target datalayout = "e-m:e-p270:32:32-p271:32:32-p272:64:64-i64:64-i128:128-f80:128-n8:16:32:64-S128"
target triple = "x86_64-pc-linux-gnu"

%struct.luaL_Buffer = type { ptr, i64, i64, ptr, %union.anon }
%union.anon = type { double, [1016 x i8] }

@.str.22 = private unnamed_addr constant [2 x i8] c";\00", align 1
@.str.35 = private unnamed_addr constant [5 x i8] c"%s%s\00", align 1
@.str.36 = private unnamed_addr constant [5 x i8] c"_5_5\00", align 1
@.str.37 = private unnamed_addr constant [3 x i8] c";;\00", align 1
@.str.38 = private unnamed_addr constant [10 x i8] c"LUA_NOENV\00", align 1

; Function Attrs: nounwind uwtable
define internal i32 @noenv(ptr noundef %0) #0 {
  %2 = alloca ptr, align 8
  %3 = alloca i32, align 4
  store ptr %0, ptr %2, align 8, !tbaa !4
  call void @llvm.lifetime.start.p0(i64 4, ptr %3) #6
  %4 = load ptr, ptr %2, align 8, !tbaa !4
  %5 = call i32 @lua_getfield(ptr noundef %4, i32 noundef -1001000, ptr noundef @.str.38)
  %6 = load ptr, ptr %2, align 8, !tbaa !4
  %7 = call i32 @lua_toboolean(ptr noundef %6, i32 noundef -1)
  store i32 %7, ptr %3, align 4, !tbaa !9
  %8 = load ptr, ptr %2, align 8, !tbaa !4
  call void @lua_settop(ptr noundef %8, i32 noundef -2)
  %9 = load i32, ptr %3, align 4, !tbaa !9
  call void @llvm.lifetime.end.p0(i64 4, ptr %3) #6
  ret i32 %9
}

; Function Attrs: nounwind uwtable
define internal void @setpath(ptr noundef %0, ptr noundef %1, ptr noundef %2, ptr noundef %3) #0 {
  %5 = alloca ptr, align 8
  %6 = alloca ptr, align 8
  %7 = alloca ptr, align 8
  %8 = alloca ptr, align 8
  %9 = alloca ptr, align 8
  %10 = alloca ptr, align 8
  %11 = alloca ptr, align 8
  %12 = alloca i64, align 8
  %13 = alloca %struct.luaL_Buffer, align 8
  store ptr %0, ptr %5, align 8, !tbaa !4
  store ptr %1, ptr %6, align 8, !tbaa !12
  store ptr %2, ptr %7, align 8, !tbaa !12
  store ptr %3, ptr %8, align 8, !tbaa !12
  call void @llvm.lifetime.start.p0(i64 8, ptr %9) #6
  call void @llvm.lifetime.start.p0(i64 8, ptr %10) #6
  %14 = load ptr, ptr %5, align 8, !tbaa !4
  %15 = load ptr, ptr %7, align 8, !tbaa !12
  %16 = call ptr (ptr, ptr, ...) @lua_pushfstring(ptr noundef %14, ptr noundef @.str.35, ptr noundef %15, ptr noundef @.str.36)
  store ptr %16, ptr %10, align 8, !tbaa !12
  call void @llvm.lifetime.start.p0(i64 8, ptr %11) #6
  %17 = load ptr, ptr %10, align 8, !tbaa !12
  %18 = call ptr @getenv(ptr noundef %17) #6
  store ptr %18, ptr %11, align 8, !tbaa !12
  %19 = load ptr, ptr %11, align 8, !tbaa !12
  %20 = icmp eq ptr %19, null
  br i1 %20, label %21, label %24

21:                                               ; preds = %4
  %22 = load ptr, ptr %7, align 8, !tbaa !12
  %23 = call ptr @getenv(ptr noundef %22) #6
  store ptr %23, ptr %11, align 8, !tbaa !12
  br label %24

24:                                               ; preds = %21, %4
  %25 = load ptr, ptr %11, align 8, !tbaa !12
  %26 = icmp eq ptr %25, null
  br i1 %26, label %31, label %27

27:                                               ; preds = %24
  %28 = load ptr, ptr %5, align 8, !tbaa !4
  %29 = call i32 @noenv(ptr noundef %28)
  %30 = icmp ne i32 %29, 0
  br i1 %30, label %31, label %37

31:                                               ; preds = %27, %24
  %32 = load ptr, ptr %5, align 8, !tbaa !4
  %33 = load ptr, ptr %8, align 8, !tbaa !12
  %34 = load ptr, ptr %8, align 8, !tbaa !12
  %35 = call i64 @strlen(ptr noundef %34) #7
  %36 = call ptr @lua_pushexternalstring(ptr noundef %32, ptr noundef %33, i64 noundef %35, ptr noundef null, ptr noundef null)
  br label %110

37:                                               ; preds = %27
  %38 = load ptr, ptr %11, align 8, !tbaa !12
  %39 = call ptr @strstr(ptr noundef %38, ptr noundef @.str.37) #7
  store ptr %39, ptr %9, align 8, !tbaa !12
  %40 = icmp eq ptr %39, null
  br i1 %40, label %41, label %45

41:                                               ; preds = %37
  %42 = load ptr, ptr %5, align 8, !tbaa !4
  %43 = load ptr, ptr %11, align 8, !tbaa !12
  %44 = call ptr @lua_pushstring(ptr noundef %42, ptr noundef %43)
  br label %109

45:                                               ; preds = %37
  call void @llvm.lifetime.start.p0(i64 8, ptr %12) #6
  %46 = load ptr, ptr %11, align 8, !tbaa !12
  %47 = call i64 @strlen(ptr noundef %46) #7
  store i64 %47, ptr %12, align 8, !tbaa !14
  call void @llvm.lifetime.start.p0(i64 1056, ptr %13) #6
  %48 = load ptr, ptr %5, align 8, !tbaa !4
  call void @luaL_buffinit(ptr noundef %48, ptr noundef %13)
  %49 = load ptr, ptr %11, align 8, !tbaa !12
  %50 = load ptr, ptr %9, align 8, !tbaa !12
  %51 = icmp ult ptr %49, %50
  br i1 %51, label %52, label %74

52:                                               ; preds = %45
  %53 = load ptr, ptr %11, align 8, !tbaa !12
  %54 = load ptr, ptr %9, align 8, !tbaa !12
  %55 = load ptr, ptr %11, align 8, !tbaa !12
  %56 = ptrtoint ptr %54 to i64
  %57 = ptrtoint ptr %55 to i64
  %58 = sub i64 %56, %57
  call void @luaL_addlstring(ptr noundef %13, ptr noundef %53, i64 noundef %58)
  %59 = getelementptr inbounds nuw %struct.luaL_Buffer, ptr %13, i32 0, i32 2
  %60 = load i64, ptr %59, align 8, !tbaa !16
  %61 = getelementptr inbounds nuw %struct.luaL_Buffer, ptr %13, i32 0, i32 1
  %62 = load i64, ptr %61, align 8, !tbaa !18
  %63 = icmp ult i64 %60, %62
  br i1 %63, label %66, label %64

64:                                               ; preds = %52
  %65 = call ptr @luaL_prepbuffsize(ptr noundef %13, i64 noundef 1)
  br label %66

66:                                               ; preds = %64, %52
  %67 = load i8, ptr @.str.22, align 1, !tbaa !19
  %68 = getelementptr inbounds nuw %struct.luaL_Buffer, ptr %13, i32 0, i32 0
  %69 = load ptr, ptr %68, align 8, !tbaa !20
  %70 = getelementptr inbounds nuw %struct.luaL_Buffer, ptr %13, i32 0, i32 2
  %71 = load i64, ptr %70, align 8, !tbaa !16
  %72 = add i64 %71, 1
  store i64 %72, ptr %70, align 8, !tbaa !16
  %73 = getelementptr inbounds nuw i8, ptr %69, i64 %71
  store i8 %67, ptr %73, align 1, !tbaa !19
  br label %74

74:                                               ; preds = %66, %45
  %75 = load ptr, ptr %8, align 8, !tbaa !12
  call void @luaL_addstring(ptr noundef %13, ptr noundef %75)
  %76 = load ptr, ptr %9, align 8, !tbaa !12
  %77 = load ptr, ptr %11, align 8, !tbaa !12
  %78 = load i64, ptr %12, align 8, !tbaa !14
  %79 = getelementptr inbounds nuw i8, ptr %77, i64 %78
  %80 = getelementptr inbounds i8, ptr %79, i64 -2
  %81 = icmp ult ptr %76, %80
  br i1 %81, label %82, label %108

82:                                               ; preds = %74
  %83 = getelementptr inbounds nuw %struct.luaL_Buffer, ptr %13, i32 0, i32 2
  %84 = load i64, ptr %83, align 8, !tbaa !16
  %85 = getelementptr inbounds nuw %struct.luaL_Buffer, ptr %13, i32 0, i32 1
  %86 = load i64, ptr %85, align 8, !tbaa !18
  %87 = icmp ult i64 %84, %86
  br i1 %87, label %90, label %88

88:                                               ; preds = %82
  %89 = call ptr @luaL_prepbuffsize(ptr noundef %13, i64 noundef 1)
  br label %90

90:                                               ; preds = %88, %82
  %91 = load i8, ptr @.str.22, align 1, !tbaa !19
  %92 = getelementptr inbounds nuw %struct.luaL_Buffer, ptr %13, i32 0, i32 0
  %93 = load ptr, ptr %92, align 8, !tbaa !20
  %94 = getelementptr inbounds nuw %struct.luaL_Buffer, ptr %13, i32 0, i32 2
  %95 = load i64, ptr %94, align 8, !tbaa !16
  %96 = add i64 %95, 1
  store i64 %96, ptr %94, align 8, !tbaa !16
  %97 = getelementptr inbounds nuw i8, ptr %93, i64 %95
  store i8 %91, ptr %97, align 1, !tbaa !19
  %98 = load ptr, ptr %9, align 8, !tbaa !12
  %99 = getelementptr inbounds i8, ptr %98, i64 2
  %100 = load ptr, ptr %11, align 8, !tbaa !12
  %101 = load i64, ptr %12, align 8, !tbaa !14
  %102 = getelementptr inbounds nuw i8, ptr %100, i64 %101
  %103 = getelementptr inbounds i8, ptr %102, i64 -2
  %104 = load ptr, ptr %9, align 8, !tbaa !12
  %105 = ptrtoint ptr %103 to i64
  %106 = ptrtoint ptr %104 to i64
  %107 = sub i64 %105, %106
  call void @luaL_addlstring(ptr noundef %13, ptr noundef %99, i64 noundef %107)
  br label %108

108:                                              ; preds = %90, %74
  call void @luaL_pushresult(ptr noundef %13)
  call void @llvm.lifetime.end.p0(i64 1056, ptr %13) #6
  call void @llvm.lifetime.end.p0(i64 8, ptr %12) #6
  br label %109

109:                                              ; preds = %108, %41
  br label %110

110:                                              ; preds = %109, %31
  %111 = load ptr, ptr %5, align 8, !tbaa !4
  %112 = load ptr, ptr %6, align 8, !tbaa !12
  call void @lua_setfield(ptr noundef %111, i32 noundef -3, ptr noundef %112)
  %113 = load ptr, ptr %5, align 8, !tbaa !4
  call void @lua_settop(ptr noundef %113, i32 noundef -2)
  call void @llvm.lifetime.end.p0(i64 8, ptr %11) #6
  call void @llvm.lifetime.end.p0(i64 8, ptr %10) #6
  call void @llvm.lifetime.end.p0(i64 8, ptr %9) #6
  ret void
}