; Function Attrs: nounwind uwtable
define internal fastcc void @setpath(ptr noundef %0, ptr noundef %1, ptr noundef %2, ptr noundef %3) unnamed_addr #0 {
  %5 = alloca %struct.luaL_Buffer, align 8
  %6 = tail call ptr (ptr, ptr, ...) @lua_pushfstring(ptr noundef %0, ptr noundef nonnull @.str.35, ptr noundef %2, ptr noundef nonnull @.str.36) #7
  %7 = tail call ptr @getenv(ptr noundef %6) #7
  %8 = icmp eq ptr %7, null
  br i1 %8, label %9, label %.thread

9:                                                ; preds = %4
  %10 = tail call ptr @getenv(ptr noundef %2) #7
  %11 = icmp eq ptr %10, null
  br i1 %11, label %14, label %.thread

.thread:                                          ; preds = %4, %9
  %.034 = phi ptr [ %10, %9 ], [ %7, %4 ]
  %12 = tail call i32 @lua_getfield(ptr noundef %0, i32 noundef -1001000, ptr noundef nonnull @.str.38) #7
  %13 = tail call i32 @lua_toboolean(ptr noundef %0, i32 noundef -1) #7
  tail call void @lua_settop(ptr noundef %0, i32 noundef -2) #7
  %.not = icmp eq i32 %13, 0
  br i1 %.not, label %17, label %14

14:                                               ; preds = %.thread, %9
  %15 = tail call i64 @strlen(ptr noundef nonnull dereferenceable(1) %3) #8
  %16 = tail call ptr @lua_pushexternalstring(ptr noundef %0, ptr noundef nonnull %3, i64 noundef %15, ptr noundef null, ptr noundef null) #7
  br label %63

17:                                               ; preds = %.thread
  %18 = tail call ptr @strstr(ptr noundef nonnull dereferenceable(1) %.034, ptr noundef nonnull dereferenceable(1) @.str.37) #8
  %19 = icmp eq ptr %18, null
  br i1 %19, label %20, label %22

20:                                               ; preds = %17
  %21 = tail call ptr @lua_pushstring(ptr noundef %0, ptr noundef nonnull %.034) #7
  br label %63

22:                                               ; preds = %17
  %23 = tail call i64 @strlen(ptr noundef nonnull dereferenceable(1) %.034) #8
  call void @llvm.lifetime.start.p0(i64 1056, ptr nonnull %5) #7
  call void @luaL_buffinit(ptr noundef %0, ptr noundef nonnull %5) #7
  %24 = icmp ult ptr %.034, %18
  br i1 %24, label %25, label %41

25:                                               ; preds = %22
  %26 = ptrtoint ptr %18 to i64
  %27 = ptrtoint ptr %.034 to i64
  %28 = sub i64 %26, %27
  call void @luaL_addlstring(ptr noundef nonnull %5, ptr noundef nonnull %.034, i64 noundef %28) #7
  %29 = getelementptr inbounds nuw i8, ptr %5, i64 16
  %30 = load i64, ptr %29, align 8, !tbaa !8
  %31 = getelementptr inbounds nuw i8, ptr %5, i64 8
  %32 = load i64, ptr %31, align 8, !tbaa !13
  %33 = icmp ult i64 %30, %32
  br i1 %33, label %36, label %34

34:                                               ; preds = %25
  %35 = call ptr @luaL_prepbuffsize(ptr noundef nonnull %5, i64 noundef 1) #7
  %.pre = load i64, ptr %29, align 8, !tbaa !8
  br label %36

36:                                               ; preds = %34, %25
  %37 = phi i64 [ %.pre, %34 ], [ %30, %25 ]
  %38 = load ptr, ptr %5, align 8, !tbaa !14
  %39 = add i64 %37, 1
  store i64 %39, ptr %29, align 8, !tbaa !8
  %40 = getelementptr inbounds nuw i8, ptr %38, i64 %37
  store i8 59, ptr %40, align 1, !tbaa !15
  br label %41

41:                                               ; preds = %36, %22
  call void @luaL_addstring(ptr noundef nonnull %5, ptr noundef %3) #7
  %42 = getelementptr inbounds nuw i8, ptr %.034, i64 %23
  %43 = getelementptr inbounds i8, ptr %42, i64 -2
  %44 = icmp ult ptr %18, %43
  br i1 %44, label %45, label %62

45:                                               ; preds = %41
  %46 = getelementptr inbounds nuw i8, ptr %5, i64 16
  %47 = load i64, ptr %46, align 8, !tbaa !8
  %48 = getelementptr inbounds nuw i8, ptr %5, i64 8
  %49 = load i64, ptr %48, align 8, !tbaa !13
  %50 = icmp ult i64 %47, %49
  br i1 %50, label %53, label %51

51:                                               ; preds = %45
  %52 = call ptr @luaL_prepbuffsize(ptr noundef nonnull %5, i64 noundef 1) #7
  %.pre35 = load i64, ptr %46, align 8, !tbaa !8
  br label %53

53:                                               ; preds = %51, %45
  %54 = phi i64 [ %.pre35, %51 ], [ %47, %45 ]
  %55 = load ptr, ptr %5, align 8, !tbaa !14
  %56 = add i64 %54, 1
  store i64 %56, ptr %46, align 8, !tbaa !8
  %57 = getelementptr inbounds nuw i8, ptr %55, i64 %54
  store i8 59, ptr %57, align 1, !tbaa !15
  %58 = getelementptr inbounds nuw i8, ptr %18, i64 2
  %59 = ptrtoint ptr %43 to i64
  %60 = ptrtoint ptr %18 to i64
  %61 = sub i64 %59, %60
  call void @luaL_addlstring(ptr noundef nonnull %5, ptr noundef nonnull %58, i64 noundef %61) #7
  br label %62

62:                                               ; preds = %53, %41
  call void @luaL_pushresult(ptr noundef nonnull %5) #7
  call void @llvm.lifetime.end.p0(i64 1056, ptr nonnull %5) #7
  br label %63

63:                                               ; preds = %20, %62, %14
  call void @lua_setfield(ptr noundef %0, i32 noundef -3, ptr noundef %1) #7
  call void @lua_settop(ptr noundef %0, i32 noundef -2) #7
  ret void
}